(dp0
S'acc'
p1
(lp2
cnumpy.core.multiarray
scalar
p3
(cnumpy
dtype
p4
(S'f8'
p5
I0
I1
tp6
Rp7
(I3
S'<'
p8
NNNI-1
I-1
I0
tp9
bS'?\xd5\xc6h\x10\x13\xe0?'
p10
tp11
Rp12
ag3
(g7
S'B\x10\xb1y\xbf\xd7\xe9?'
p13
tp14
Rp15
ag3
(g7
S'\xbe\xbe\xa8&\xe3\x88\xec?'
p16
tp17
Rp18
ag3
(g7
S'\xd1\xac\xc1d\xeb\xaa\xec?'
p19
tp20
Rp21
ag3
(g7
S'\xa5\x15H\x91F\xbd\xec?'
p22
tp23
Rp24
ag3
(g7
S'~\x131\xd7\x05\xbd\xec?'
p25
tp26
Rp27
ag3
(g7
S'\xd8+\xa2:\xf5\xd1\xec?'
p28
tp29
Rp30
ag3
(g7
S'y#\xd9D\x11\xe9\xec?'
p31
tp32
Rp33
ag3
(g7
S'6n\x1dD\xe2\xf7\xec?'
p34
tp35
Rp36
ag3
(g7
S'\x1d\xd0}\xd0r\x0f\xed?'
p37
tp38
Rp39
ag3
(g7
S'|\xcd\x85\xa4)\x15\xed?'
p40
tp41
Rp42
ag3
(g7
S'R\x9bE\xfbf3\xed?'
p43
tp44
Rp45
ag3
(g7
S'\x88&<\xc9\xcdI\xed?'
p46
tp47
Rp48
ag3
(g7
S'cy\xfb>\x99_\xed?'
p49
tp50
Rp51
ag3
(g7
S'\x1e_\x06\x14\x88b\xed?'
p52
tp53
Rp54
ag3
(g7
S'rMm\xd1yf\xed?'
p55
tp56
Rp57
ag3
(g7
S'\x01\x9c\xfe\xd2\xc3{\xed?'
p58
tp59
Rp60
ag3
(g7
S'I\xc07\xaf&\x9e\xed?'
p61
tp62
Rp63
ag3
(g7
S'5\x07/\xac~\xa6\xed?'
p64
tp65
Rp66
ag3
(g7
S'\xb6\xe1\xe5l!\xae\xed?'
p67
tp68
Rp69
ag3
(g7
S'\x9b\xeeo\xc9\xa5\xaf\xed?'
p70
tp71
Rp72
ag3
(g7
S'\xb3\x11T\xcf\xd8\xc5\xed?'
p73
tp74
Rp75
ag3
(g7
S'l\xf2\xbc\xcb\x1e\xb6\xed?'
p76
tp77
Rp78
ag3
(g7
S')H\xc2\xec\x1c\xa8\xed?'
p79
tp80
Rp81
ag3
(g7
S'\x95\x8a\xb3\x0f\x9fa\xed?'
p82
tp83
Rp84
ag3
(g7
S'T\xda\x99\xe7\x18\x83\xed?'
p85
tp86
Rp87
ag3
(g7
S'Qu`\xbd6w\xed?'
p88
tp89
Rp90
ag3
(g7
S'WO6\x0c\xd1\x84\xed?'
p91
tp92
Rp93
ag3
(g7
S'\xf4\x87\xbb\xe3Ug\xed?'
p94
tp95
Rp96
ag3
(g7
S'\xc5\x8b\x08\xe6\xcem\xed?'
p97
tp98
Rp99
asS'loss'
p100
(lp101
g3
(g7
S':\xceqr\xce/\xe6?'
p102
tp103
Rp104
ag3
(g7
S'\xd5\xd9\xc8\xb0\x94c\xd9?'
p105
tp106
Rp107
ag3
(g7
S'\xf7\x07\x97-\x8c+\xd1?'
p108
tp109
Rp110
ag3
(g7
S'.\xaeU\xd8vx\xd0?'
p111
tp112
Rp113
ag3
(g7
S'\x11\xc6\x1f\xaa66\xd0?'
p114
tp115
Rp116
ag3
(g7
S'\x89e)\x042E\xd0?'
p117
tp118
Rp119
ag3
(g7
S'\xa2W[\x88\xfd\x9d\xcf?'
p120
tp121
Rp122
ag3
(g7
S'\xc3K\xd9\xab\xe0]\xce?'
p123
tp124
Rp125
ag3
(g7
S'\x1c\x00\xc4\xc9\xb3]\xcd?'
p126
tp127
Rp128
ag3
(g7
S'\xf1J"\x92\x8d\xe9\xcb?'
p129
tp130
Rp131
ag3
(g7
S'\xad|\xc2\xd5gO\xcb?'
p132
tp133
Rp134
ag3
(g7
S'\x9a\xb9<\x18\xbd\x16\xca?'
p135
tp136
Rp137
ag3
(g7
S'\x0b,\xf5\x7f\xbfJ\xc9?'
p138
tp139
Rp140
ag3
(g7
S'-F\xcf\x91K^\xc8?'
p141
tp142
Rp143
ag3
(g7
S'}e\xa2<\x85S\xc8?'
p144
tp145
Rp146
ag3
(g7
S'\xc27%j\x92\x12\xc8?'
p147
tp148
Rp149
ag3
(g7
S'F`\xbb\x82\xf2\x17\xc7?'
p150
tp151
Rp152
ag3
(g7
S'\xc3\xb0\x8e\xab\xbb\xf5\xc5?'
p153
tp154
Rp155
ag3
(g7
S'O\x11E\xea\x02v\xc5?'
p156
tp157
Rp158
ag3
(g7
S'\xc6\x11U6\x15\xf1\xc4?'
p159
tp160
Rp161
ag3
(g7
S'5 g\xde\xcdu\xc5?'
p162
tp163
Rp164
ag3
(g7
S'!et\xfc\x97\x9b\xc4?'
p165
tp166
Rp167
ag3
(g7
S'\x1eq\xc3\xfc\xd0\x04\xc5?'
p168
tp169
Rp170
ag3
(g7
S'\xean\xb4\xf9\x8d\r\xc6?'
p171
tp172
Rp173
ag3
(g7
S'\x95\x01\x82\xb8\xfe\xae\xc8?'
p174
tp175
Rp176
ag3
(g7
S'\x86\xf2\xc9e\x87s\xc7?'
p177
tp178
Rp179
ag3
(g7
S'\xc9\xcc\x0c\xe2\xb8\xd0\xc7?'
p180
tp181
Rp182
ag3
(g7
S'\xf5\x8d\x1e\xae-\x7f\xc7?'
p183
tp184
Rp185
ag3
(g7
S'\xcd\xe4\xc3\xce\xc8i\xc8?'
p186
tp187
Rp188
ag3
(g7
S'\x96N\xad?\x01@\xc8?'
p189
tp190
Rp191
asS'epoch'
p192
(lp193
I0
aI1
aI2
aI3
aI4
aI5
aI6
aI7
aI8
aI9
aI10
aI11
aI12
aI13
aI14
aI15
aI16
aI17
aI18
aI19
aI20
aI21
aI22
aI23
aI24
aI25
aI26
aI27
aI28
aI29
asS'val_acc'
p194
(lp195
F0.4940608348134991
aF0.8794404973357016
aF0.8912633214920072
aF0.8988121669626998
aF0.8988121669626998
aF0.8970359680284192
aF0.9101354351687388
aF0.9111345470692718
aF0.90625
aF0.9104129662522202
aF0.917351243339254
aF0.9157415630550622
aF0.9221247779751333
aF0.9260657193605684
aF0.9239009769094139
aF0.929285079928952
aF0.9342806394316163
aF0.9356682948490231
aF0.9367784191829485
aF0.9323379218472468
aF0.9339476021314387
aF0.9418849911190054
aF0.9375
aF0.9195159857904085
aF0.9316163410301954
aF0.9290075488454707
aF0.9292295737122558
aF0.9269538188277087
aF0.9247890763765542
aF0.9267317939609236
asS'val_loss'
p196
(lp197
F0.6926432949048535
aF0.28812500109703043
aF0.27899278340211964
aF0.2622237529303549
aF0.2515454126752727
aF0.25565034125260744
aF0.2307461761060021
aF0.2197187334701118
aF0.23154242992320329
aF0.21148648820019267
aF0.18657911995958423
aF0.20859651265180215
aF0.18969996623877458
aF0.16803752150519527
aF0.1767561637957151
aF0.16103548106493118
aF0.15997019067326243
aF0.14547967283961596
aF0.15105945277736932
aF0.14463874303565785
aF0.1587514267138487
aF0.13679282334431334
aF0.1429868209133552
aF0.17204612588211177
aF0.16339858108974256
aF0.16493143399621416
aF0.16246096229535958
aF0.17022224288283969
aF0.17906813042859787
aF0.16731276517846985
as.