(dp0
S'acc'
p1
(lp2
cnumpy.core.multiarray
scalar
p3
(cnumpy
dtype
p4
(S'f8'
p5
I0
I1
tp6
Rp7
(I3
S'<'
p8
NNNI-1
I-1
I0
tp9
bS'\xa2\xf76\n\x1c\x17\xe0?'
p10
tp11
Rp12
ag3
(g7
S'zo\xa3\xc0qa\xe0?'
p13
tp14
Rp15
ag3
(g7
S'\xcd\xad>\xd5\xc6h\xe0?'
p16
tp17
Rp18
ag3
(g7
S'\xb0\x9a\x02=\x9f~\xe0?'
p19
tp20
Rp21
ag3
(g7
S'J\xb3\xc1\x1fxu\xe0?'
p22
tp23
Rp24
ag3
(g7
S'<\x84Z\x14\x07\x88\xe0?'
p25
tp26
Rp27
ag3
(g7
S'\x8f\xc2\xf5(\\\x8f\xe0?'
p28
tp29
Rp30
ag3
(g7
S'\xf4\xdeF\x81\xe3\xc2\xe0?'
p31
tp32
Rp33
ag3
(g7
S'\xf8\xbe;\x19\x02\xa1\xe0?'
p34
tp35
Rp36
ag3
(g7
S'\xf6\x1d\x9bm\x95\x12\xe1?'
p37
tp38
Rp39
ag3
(g7
S'lj\x8b\xce3\xbb\xe0?'
p40
tp41
Rp42
ag3
(g7
S'\x15\xf1\x05\xa9/\xef\xe2?'
p43
tp44
Rp45
ag3
(g7
S'XXB\xc0|"\xe6?'
p46
tp47
Rp48
ag3
(g7
S'\x05|\xf3j\xe2Y\xef?'
p49
tp50
Rp51
ag3
(g7
S'\xb0-\xf5[\xb7\\\xef?'
p52
tp53
Rp54
ag3
(g7
S'\x82\x91\xd9\xafi\\\xef?'
p55
tp56
Rp57
ag3
(g7
S'\xa1\xf9\xebw\x9d\\\xef?'
p58
tp59
Rp60
ag3
(g7
S'\xee]\xb1=XV\xef?'
p61
tp62
Rp63
ag3
(g7
S'd)\xc7\xe75\\\xef?'
p64
tp65
Rp66
ag3
(g7
S'*\xce>|\x86]\xef?'
p67
tp68
Rp69
ag3
(g7
S'A\x9cLR\xad]\xef?'
p70
tp71
Rp72
ag3
(g7
S'Q\xd0U6\xc7]\xef?'
p73
tp74
Rp75
ag3
(g7
S'\x1b\x9a5\x98l]\xef?'
p76
tp77
Rp78
ag3
(g7
S'e\xffw\xce\x02\x15\xef?'
p79
tp80
Rp81
ag3
(g7
S"\x04\xcc'\xc2E]\xef?"
p82
tp83
Rp84
ag3
(g7
S'\xc7\xfb\x022\xde\\\xef?'
p85
tp86
Rp87
ag3
(g7
S'~\xc5\xb1\xed#\xff\xe3?'
p88
tp89
Rp90
ag3
(g7
S'\x03c\x84\xbc`\xc6\xe2?'
p91
tp92
Rp93
ag3
(g7
S'\x04\xc3\x1b\x0e\x9a\xbf\xe2?'
p94
tp95
Rp96
ag3
(g7
S'\xf7\x88\xf3\xe0\xfb\xee\xe4?'
p97
tp98
Rp99
asS'loss'
p100
(lp101
g3
(g7
S'0Ue\xd9H/\xe6?'
p102
tp103
Rp104
ag3
(g7
S'\xdc\x97\xf9\x97\xfa*\xe6?'
p105
tp106
Rp107
ag3
(g7
S'\xe5K\x9d\xf5,*\xe6?'
p108
tp109
Rp110
ag3
(g7
S'J\xcb\n\xbdj)\xe6?'
p111
tp112
Rp113
ag3
(g7
S'\xb9gG\xfcU)\xe6?'
p114
tp115
Rp116
ag3
(g7
S'\x08\x87\x93~\x1f(\xe6?'
p117
tp118
Rp119
ag3
(g7
S'x\x0f}\xf6\x80&\xe6?'
p120
tp121
Rp122
ag3
(g7
S'5\x95J\x902\x1d\xe6?'
p123
tp124
Rp125
ag3
(g7
S'\x90\x16\xe5H3%\xe6?'
p126
tp127
Rp128
ag3
(g7
S'\x92\xe1qxl\x0f\xe6?'
p129
tp130
Rp131
ag3
(g7
S"\x02'B\x96\xd8$\xe6?"
p132
tp133
Rp134
ag3
(g7
S'\x03\xb3\xc3\xf5\xd8\x15\xe5?'
p135
tp136
Rp137
ag3
(g7
S'\x99\xd2\x19\x97\xcd\x00\xe0?'
p138
tp139
Rp140
ag3
(g7
S'\xd7\x01\n\xed~\x95\xba?'
p141
tp142
Rp143
ag3
(g7
S'\x88P\xc72m\xbb\xb9?'
p144
tp145
Rp146
ag3
(g7
S'b\xab2\xd4,\xa7\xb9?'
p147
tp148
Rp149
ag3
(g7
S'\x9eR\x96\x89\x1a\x82\xb9?'
p150
tp151
Rp152
ag3
(g7
S'\xc2\x9d\xf7>\xbc>\xba?'
p153
tp154
Rp155
ag3
(g7
S'\xac\xb9\xd5\xf3\xaf\x8d\xb9?'
p156
tp157
Rp158
ag3
(g7
S'\x9eD\x98|\xecZ\xb9?'
p159
tp160
Rp161
ag3
(g7
S'\x843(\x7f\xcbS\xb9?'
p162
tp163
Rp164
ag3
(g7
S'|\x1c\xad/\xd0D\xb9?'
p165
tp166
Rp167
ag3
(g7
S'\x16\x97\x8a\xe0\xdbA\xb9?'
p168
tp169
Rp170
ag3
(g7
S'Y\x1d%)\xe6b\xc0?'
p171
tp172
Rp173
ag3
(g7
S'\x1de\xb6`p\x95\xb9?'
p174
tp175
Rp176
ag3
(g7
S'$\x06\xe7.j/\xb9?'
p177
tp178
Rp179
ag3
(g7
S'7\rB~77\xe4?'
p180
tp181
Rp182
ag3
(g7
S'\xbb\x96T\xa5\x9a\x9e\xe5?'
p183
tp184
Rp185
ag3
(g7
S'\x95\x8dF\xbb?F\xe5?'
p186
tp187
Rp188
ag3
(g7
S'8m\xf7*\xd2\xeb\xe3?'
p189
tp190
Rp191
asS'epoch'
p192
(lp193
I0
aI1
aI2
aI3
aI4
aI5
aI6
aI7
aI8
aI9
aI10
aI11
aI12
aI13
aI14
aI15
aI16
aI17
aI18
aI19
aI20
aI21
aI22
aI23
aI24
aI25
aI26
aI27
aI28
aI29
asS'val_acc'
p194
(lp195
F0.511933836589698
aF0.5161523090586145
aF0.5170404085257548
aF0.5134880106571936
aF0.5164298401420959
aF0.5189831261101243
aF0.51726243339254
aF0.5187055950266429
aF0.5324156305506217
aF0.5789853463587922
aF0.5471247779751333
aF0.859791296625222
aF0.9792961811722913
aF0.9814609236234458
aF0.9816274422735346
aF0.9813499111900533
aF0.9817939609236235
aF0.9814054174067496
aF0.9817384547069272
aF0.9818494671403197
aF0.9818494671403197
aF0.9817939609236235
aF0.9818494671403197
aF0.9817939609236235
aF0.9817939609236235
aF0.9816829484902309
aF0.9649200710479574
aF0.9816829484902309
aF0.9817384547069272
aF0.981904973357016
asS'val_loss'
p196
(lp197
F0.6927848994251985
aF0.6924350544809645
aF0.6923939430885714
aF0.6924952686019348
aF0.6925646380969124
aF0.6920981294612832
aF0.6912732907594477
aF0.692122000521616
aF0.6909680803745675
aF0.6796260551323058
aF0.6894102848560685
aF0.6726997483334101
aF0.10532986514649464
aF0.09154308869395184
aF0.09070609808512521
aF0.09155382671939469
aF0.08995245114372143
aF0.09134629507772447
aF0.08997156677606362
aF0.08948802694932642
aF0.08940523033323725
aF0.089624782485613
aF0.08921589402475907
aF0.09473027754257327
aF0.08942175348019325
aF0.08945647134509994
aF0.6780719846086863
aF0.6663239294360301
aF0.6327057797724928
aF0.5531034727745998
as.