(dp0
S'acc'
p1
(lp2
cnumpy.core.multiarray
scalar
p3
(cnumpy
dtype
p4
(S'f8'
p5
I0
I1
tp6
Rp7
(I3
S'<'
p8
NNNI-1
I-1
I0
tp9
bS'\xdd\xfck\xd5\xe3A\xe0?'
p10
tp11
Rp12
ag3
(g7
S'\x12\x18hW;i\xe6?'
p13
tp14
Rp15
ag3
(g7
S'\x82\xe1\r\x07\xcd_\xef?'
p16
tp17
Rp18
ag3
(g7
S'mf!\xf300\xea?'
p19
tp20
Rp21
ag3
(g7
S'\xd6\x123\x8cs>\xea?'
p22
tp23
Rp24
ag3
(g7
S'&\xf9\n\x06\x95b\xef?'
p25
tp26
Rp27
ag3
(g7
S'\x1e_\x06\x14\x88b\xef?'
p28
tp29
Rp30
ag3
(g7
S'\x1e_\x06\x14\x88b\xef?'
p31
tp32
Rp33
ag3
(g7
S'\xd5\x0b\xdcEI\xe6\xee?'
p34
tp35
Rp36
ag3
(g7
S'\xc8\xc8\xa7d\xffw\xec?'
p37
tp38
Rp39
ag3
(g7
S'\xf0\xc2\xeag:b\xef?'
p40
tp41
Rp42
ag3
(g7
S'\x0f+\xfd/nb\xef?'
p43
tp44
Rp45
ag3
(g7
S'\x07\x91\xf8=ab\xef?'
p46
tp47
Rp48
ag3
(g7
S'\xa83Y\x18qc\xef?'
p49
tp50
Rp51
ag3
(g7
S'vr\xd5\x9e\xced\xef?'
p52
tp53
Rp54
ag3
(g7
S'\x03l\x90p\x0cd\xef?'
p55
tp56
Rp57
ag3
(g7
S'\xca\x10\x08\x05]e\xef?'
p58
tp59
Rp60
ag3
(g7
S'g>\xcc\xba\xb4d\xef?'
p61
tp62
Rp63
ag3
(g7
S'Pp\xbe\xe4\x8dd\xef?'
p64
tp65
Rp66
ag3
(g7
S'Pp\xbe\xe4\x8dd\xef?'
p67
tp68
Rp69
asS'loss'
p70
(lp71
g3
(g7
S'\xect.\xf4\x13,\xe6?'
p72
tp73
Rp74
ag3
(g7
S'\xe2O:o\x06\x7f\xe0?'
p75
tp76
Rp77
ag3
(g7
S'\xa8r\x88\x11\xafj\xb9?'
p78
tp79
Rp80
ag3
(g7
S'\xff\xf6\x15;O\xf9\xd5?'
p81
tp82
Rp83
ag3
(g7
S'\xdcYl.\xde\xd0\xd9?'
p84
tp85
Rp86
ag3
(g7
S'\xd1\xef\xed\xb6MR\xb9?'
p87
tp88
Rp89
ag3
(g7
S'\xc6\xec\\\xd4\xe3\x1e\xb9?'
p90
tp91
Rp92
ag3
(g7
S'\xee\x80)Q\x15\x1b\xb9?'
p93
tp94
Rp95
ag3
(g7
S'x\x0f\xe7r\xd1\xdf\xc1?'
p96
tp97
Rp98
ag3
(g7
S'\x87-\\\xe8\xe28\xd7?'
p99
tp100
Rp101
ag3
(g7
S'(\xc5>k\xc1G\xbc?'
p102
tp103
Rp104
ag3
(g7
S'\x92A\x0f\xde\xb2\xcd\xb9?'
p105
tp106
Rp107
ag3
(g7
S'\xe4o#\x1e7\xc9\xb8?'
p108
tp109
Rp110
ag3
(g7
S'\x8b_\xcd\xe7\x11\xb5\xb7?'
p111
tp112
Rp113
ag3
(g7
S'\xfa\x0e7S%\xca\xb6?'
p114
tp115
Rp116
ag3
(g7
S'\xe5\xae\xbe\x00"\x81\xb6?'
p117
tp118
Rp119
ag3
(g7
S'"W\x93\x19\x06X\xb6?'
p120
tp121
Rp122
ag3
(g7
S")'<\xa5\xf9\x0e\xb6?"
p123
tp124
Rp125
ag3
(g7
S'\xc8kh\x7f\xe3\xdf\xb5?'
p126
tp127
Rp128
ag3
(g7
S'\xe1\xe6\xfe+^\xc5\xb5?'
p129
tp130
Rp131
asS'epoch'
p132
(lp133
I0
aI1
aI2
aI3
aI4
aI5
aI6
aI7
aI8
aI9
aI10
aI11
aI12
aI13
aI14
aI15
aI16
aI17
aI18
aI19
asS'val_acc'
p134
(lp135
F0.5199822380106572
aF0.981904973357016
aF0.9820159857904085
aF0.7743672291296625
aF0.9822380106571936
aF0.9822380106571936
aF0.9822380106571936
aF0.9822380106571936
aF0.5069382770870338
aF0.9822380106571936
aF0.9821269982238011
aF0.9822380106571936
aF0.9821269982238011
aF0.9822935168738899
aF0.98273756660746
aF0.9826265541740675
aF0.9825710479573713
aF0.9825155417406749
aF0.9824045293072824
aF0.9823490230905861
asS'val_loss'
p136
(lp137
F0.6920714214119841
aF0.09103677936344118
aF0.08960805489139968
aF0.6789987242606436
aF0.09057970100572856
aF0.08877860509953056
aF0.08861104946616981
aF0.08824980413574215
aF0.8942403471847871
aF0.10458423337628946
aF0.08870242923874957
aF0.08804148476845237
aF0.08521900994209432
aF0.0802970270102754
aF0.07985206321628742
aF0.07972730255439427
aF0.07821766522124528
aF0.07834379974326484
aF0.07825982212246413
aF0.0782753494132783
as.