(dp0
S'acc'
p1
(lp2
cnumpy.core.multiarray
scalar
p3
(cnumpy
dtype
p4
(S'f8'
p5
I0
I1
tp6
Rp7
(I3
S'<'
p8
NNNI-1
I-1
I0
tp9
bS'oL5\xd4\xd3\xde\xdf?'
p10
tp11
Rp12
ag3
(g7
S'\xaf&\x9e\x15\x8d\x04\xe0?'
p13
tp14
Rp15
ag3
(g7
S'J\xef(\xa1\x02\xf8\xdf?'
p16
tp17
Rp18
ag3
(g7
S'[\xd8\x9f\x06b\x07\xe0?'
p19
tp20
Rp21
ag3
(g7
S'\x93\xdeQB\x05\xf0\xdf?'
p22
tp23
Rp24
ag3
(g7
S'\x0e\xd4q\x92\xe0\x06\xe0?'
p25
tp26
Rp27
ag3
(g7
S'\xe8!\x8f/\x03\n\xe0?'
p28
tp29
Rp30
ag3
(g7
S'{\xf5\x1fP\xdb\x16\xe0?'
p31
tp32
Rp33
ag3
(g7
S'\x14N\xb0\x8fA\x1b\xe0?'
p34
tp35
Rp36
ag3
(g7
S'\xd6W\xa6\xc1\xa9^\xe0?'
p37
tp38
Rp39
ag3
(g7
S'\xdb\x18\rb\xc2\xd8\xe1?'
p40
tp41
Rp42
ag3
(g7
S'@3\xa9L\xc8\xc6\xe6?'
p43
tp44
Rp45
ag3
(g7
S'\x01A\tZ3\x95\xed?'
p46
tp47
Rp48
ag3
(g7
S'\x9e\xe4\xe6\xa4\x1eT\xef?'
p49
tp50
Rp51
ag3
(g7
S'\xcd\x85\xa4)\x15g\xef?'
p52
tp53
Rp54
ag3
(g7
S'\x97\xef\xec9\x81m\xef?'
p55
tp56
Rp57
ag3
(g7
S'R\xd5\xf7\x0epp\xef?'
p58
tp59
Rp60
ag3
(g7
S'\xb9l\x04\xd53v\xef?'
p61
tp62
Rp63
ag3
(g7
S'\x87\xab\x80[\x91w\xef?'
p64
tp65
Rp66
ag3
(g7
S'\x96/\xbe\x96\x0e{\xef?'
p67
tp68
Rp69
ag3
(g7
S'#y\xad\xbf\xaf}\xef?'
p70
tp71
Rp72
ag3
(g7
S'\xe9\x1d%T\x00\x7f\xef?'
p73
tp74
Rp75
ag3
(g7
S'\xa4\xb3\xfb\xd1\x8b~\xef?'
p76
tp77
Rp78
ag3
(g7
S'\xa4\xb3\xfb\xd1\x8b~\xef?'
p79
tp80
Rp81
ag3
(g7
S'\x8a\xc0\x85.\x10\x80\xef?'
p82
tp83
Rp84
ag3
(g7
S'\x07\xd6ks\x97\x82\xef?'
p85
tp86
Rp87
ag3
(g7
S'\xca\x05G\xe3/\x82\xef?'
p88
tp89
Rp90
ag3
(g7
S'\xf4|\xfa\xc1(\x84\xef?'
p91
tp92
Rp93
ag3
(g7
S'\x03\x018\xfd\xa5\x87\xef?'
p94
tp95
Rp96
ag3
(g7
S'1\x9dS\xa9\xf3\x87\xef?'
p97
tp98
Rp99
asS'loss'
p100
(lp101
g3
(g7
S'\x02@\x1d\x92\x0e0\xe6?'
p102
tp103
Rp104
ag3
(g7
S'\xfd\x06\xbf\xc7}.\xe6?'
p105
tp106
Rp107
ag3
(g7
S'\xb1\x18w\x0fq.\xe6?'
p108
tp109
Rp110
ag3
(g7
S'\xfe\x1f\xf3$].\xe6?'
p111
tp112
Rp113
ag3
(g7
S'\xab\xc0Z\x1cU.\xe6?'
p114
tp115
Rp116
ag3
(g7
S'\xfc\xd0\xd4#`.\xe6?'
p117
tp118
Rp119
ag3
(g7
S'\xc3y\x12\x00@.\xe6?'
p120
tp121
Rp122
ag3
(g7
S'<\x15\xaa\x9a1.\xe6?'
p123
tp124
Rp125
ag3
(g7
S'A\xd4A\xab\xf8-\xe6?'
p126
tp127
Rp128
ag3
(g7
S'\xf8\x91\\\x9a\xab)\xe6?'
p129
tp130
Rp131
ag3
(g7
S'\x1c\xe7\x86\xf0L\xb8\xe5?'
p132
tp133
Rp134
ag3
(g7
S'\xca4\xdaPo\xf2\xe1?'
p135
tp136
Rp137
ag3
(g7
S'\x0f\xa6\xc0\x85"\x00\xca?'
p138
tp139
Rp140
ag3
(g7
S'\x9a\x0b\x0ci\x0fG\xb2?'
p141
tp142
Rp143
ag3
(g7
S'l\xec4\xb2\x83\x0b\xb0?'
p144
tp145
Rp146
ag3
(g7
S'AC\xa4\x0e\xf1}\xae?'
p147
tp148
Rp149
ag3
(g7
S'\xe2wmQ\xb9p\xad?'
p150
tp151
Rp152
ag3
(g7
S'T\xedt\xba;\x87\xac?'
p153
tp154
Rp155
ag3
(g7
S'\x18\x19\xb7\x9a\x08n\xab?'
p156
tp157
Rp158
ag3
(g7
S'=3\x98\xbd\x96\xd5\xaa?'
p159
tp160
Rp161
ag3
(g7
S'Hp\xe8\xa2\xaa^\xaa?'
p162
tp163
Rp164
ag3
(g7
S'\xe7\xde\xa5\x95\x86x\xa9?'
p165
tp166
Rp167
ag3
(g7
S'\xcf\xf8\xa291\x97\xa9?'
p168
tp169
Rp170
ag3
(g7
S'\x02`.[\xb6\xff\xa8?'
p171
tp172
Rp173
ag3
(g7
S'\xff\xe0|^e\xd1\xa8?'
p174
tp175
Rp176
ag3
(g7
S'\x80\x1f<\x08\xa5T\xa8?'
p177
tp178
Rp179
ag3
(g7
S'\xe3!3\xa1\x14 \xa8?'
p180
tp181
Rp182
ag3
(g7
S'\xdeI\xf0\xbfb\n\xa8?'
p183
tp184
Rp185
ag3
(g7
S'\xa1T\x0e\x8c]\xa2\xa7?'
p186
tp187
Rp188
ag3
(g7
S'\xfa\xc5p\x18N-\xa7?'
p189
tp190
Rp191
asS'epoch'
p192
(lp193
I0
aI1
aI2
aI3
aI4
aI5
aI6
aI7
aI8
aI9
aI10
aI11
aI12
aI13
aI14
aI15
aI16
aI17
aI18
aI19
aI20
aI21
aI22
aI23
aI24
aI25
aI26
aI27
aI28
aI29
asS'val_acc'
p194
(lp195
F0.49306172291296624
aF0.5069382770870338
aF0.49306172291296624
aF0.49306172291296624
aF0.5069382770870338
aF0.5069382770870338
aF0.49306172291296624
aF0.5236456483126111
aF0.5196492007104796
aF0.522202486678508
aF0.6488121669626998
aF0.8531860568383659
aF0.9821825044404974
aF0.9691385435168739
aF0.9834591474245116
aF0.9830150976909414
aF0.9832371225577264
aF0.9838476909413855
aF0.984791296625222
aF0.9856793960923623
aF0.9855683836589698
aF0.9849578152753108
aF0.9853463587921847
aF0.9834036412078153
aF0.9865119893428064
aF0.9865674955595026
aF0.9867340142095915
aF0.9859014209591475
aF0.9865119893428064
aF0.9869560390763765
asS'val_loss'
p196
(lp197
F0.6931493600975673
aF0.693066450902496
aF0.6932525639082884
aF0.6931828098722795
aF0.6931355911441119
aF0.6931336906540155
aF0.6931882649907255
aF0.6931096360215755
aF0.6929192031812469
aF0.6916557390068112
aF0.627125715429182
aF0.35819200816503083
aF0.060070717551841804
aF0.10494200543987106
aF0.04976848912505352
aF0.05227139920153066
aF0.05221683547551382
aF0.04847091868110763
aF0.04360563541889467
aF0.04140919550986969
aF0.04104326298646525
aF0.044286397407010646
aF0.041484481535179106
aF0.05294887153374365
aF0.038857266431674344
aF0.03865224200527625
aF0.03790034946219217
aF0.039887939487689046
aF0.03735029436284188
aF0.0379238006145227
as.