(dp0
S'acc'
p1
(lp2
cnumpy.core.multiarray
scalar
p3
(cnumpy
dtype
p4
(S'f8'
p5
I0
I1
tp6
Rp7
(I3
S'<'
p8
NNNI-1
I-1
I0
tp9
bS'\xdc\xa7\x95\xa5\xd7+\xe6?'
p10
tp11
Rp12
ag3
(g7
S'\x15\x0e\xdf2\xb4\r\xe8?'
p13
tp14
Rp15
ag3
(g7
S'K\xba\x18f\xa2\xcd\xeb?'
p16
tp17
Rp18
ag3
(g7
S'(\xd6\x123\x8cs\xec?'
p19
tp20
Rp21
ag3
(g7
S'\x86\xcc\xc3\xc0\x18!\xed?'
p22
tp23
Rp24
ag3
(g7
S'i\xf39<\xfas\xed?'
p25
tp26
Rp27
ag3
(g7
S'D\x80\xab\xc5\xce\xc6\xed?'
p28
tp29
Rp30
ag3
(g7
S'\xb3\xcc\xe0\x99\xa2\xa5\xed?'
p31
tp32
Rp33
ag3
(g7
S'7X\x9b\x00\x881\xef?'
p34
tp35
Rp36
ag3
(g7
S'N\x00\xc4\x98~u\xef?'
p37
tp38
Rp39
ag3
(g7
S'\x06\xc6\x08y\xc1\x8c\xef?'
p40
tp41
Rp42
ag3
(g7
S'\xdf\xb3\x8e\xc4\xaa\x96\xef?'
p43
tp44
Rp45
ag3
(g7
S'6\xc7]O\xf1\x98\xef?'
p46
tp47
Rp48
ag3
(g7
S'\x1f\xf9Oy\xca\x98\xef?'
p49
tp50
Rp51
ag3
(g7
S'>abA\xfe\x98\xef?'
p52
tp53
Rp54
asS'loss'
p55
(lp56
g3
(g7
S'\x97[\x87\xe6?\x8a\xe2?'
p57
tp58
Rp59
ag3
(g7
S'0\x88\x84\x86\x95o\xe0?'
p60
tp61
Rp62
ag3
(g7
S'\xa7B\x9a\xce\xb5\x8e\xd6?'
p63
tp64
Rp65
ag3
(g7
S'P\xd0\x94\xf7\xf7a\xd4?'
p66
tp67
Rp68
ag3
(g7
S'\xb7\xe3"\x18\x92\xc9\xd1?'
p69
tp70
Rp71
ag3
(g7
S'wP\xbe\xc5\x05\xc7\xcf?'
p72
tp73
Rp74
ag3
(g7
S'b/\x10wj\x1c\xcc?'
p75
tp76
Rp77
ag3
(g7
S'\xbf\xcd-\xac\x19\x91\xc9?'
p78
tp79
Rp80
ag3
(g7
S'\xad\r?z\xc3\x86\xb3?'
p81
tp82
Rp83
ag3
(g7
S'\xf6<\xabXz\xb7\xae?'
p84
tp85
Rp86
ag3
(g7
S'\x8f\xf0=\xb0\x9f\x00\xab?'
p87
tp88
Rp89
ag3
(g7
S'\x07\xe00|9\xfa\xa8?'
p90
tp91
Rp92
ag3
(g7
S'2d\xd87\x06\x92\xa7?'
p93
tp94
Rp95
ag3
(g7
S'\xe7:m\xdap\xb5\xa6?'
p96
tp97
Rp98
ag3
(g7
S';v\xb4\x92\xd7T\xa6?'
p99
tp100
Rp101
asS'epoch'
p102
(lp103
I0
aI1
aI2
aI3
aI4
aI5
aI6
aI7
aI8
aI9
aI10
aI11
aI12
aI13
aI14
asS'val_acc'
p104
(lp105
F0.8372002664298401
aF0.7999000888099467
aF0.8896536412078153
aF0.8977575488454707
aF0.9209036412078153
aF0.9330595026642984
aF0.9471580817051509
aF0.9613676731793961
aF0.9800732682060391
aF0.9855128774422736
aF0.9860679396092362
aF0.9862899644760214
aF0.9862899644760214
aF0.9862899644760214
aF0.9862899644760214
asS'val_loss'
p106
(lp107
F0.435631672579179
aF0.43718944308968544
aF0.31690513343365045
aF0.29426543740149813
aF0.2513204617817514
aF0.2127429179034372
aF0.16586914472195366
aF0.09573125794059141
aF0.06554928996577898
aF0.056759403214647945
aF0.05224931993849786
aF0.049080881176816145
aF0.04738718454462083
aF0.04619334434098232
aF0.04528066563133901
as.