(dp0
S'acc'
p1
(lp2
cnumpy.core.multiarray
scalar
p3
(cnumpy
dtype
p4
(S'f8'
p5
I0
I1
tp6
Rp7
(I3
S'<'
p8
NNNI-1
I-1
I0
tp9
bS'i\xc0\xden\x1b\x8f\xe0?'
p10
tp11
Rp12
ag3
(g7
S'\xdf\xed@\xd8\xb3\xd3\xe3?'
p13
tp14
Rp15
ag3
(g7
S'\xb9\x9d\xaa4\x91\x15\xe7?'
p16
tp17
Rp18
ag3
(g7
S'\x87\xab\x80[\x91w\xef?'
p19
tp20
Rp21
ag3
(g7
S'6\x82\xea\x19\xbbx\xef?'
p22
tp23
Rp24
ag3
(g7
S'>\x1c\xef\x0b\xc8x\xef?'
p25
tp26
Rp27
ag3
(g7
S'6\x82\xea\x19\xbbx\xef?'
p28
tp29
Rp30
ag3
(g7
S'F\xb6\xf3\xfd\xd4x\xef?'
p31
tp32
Rp33
ag3
(g7
S'F\xb6\xf3\xfd\xd4x\xef?'
p34
tp35
Rp36
ag3
(g7
S'F\xb6\xf3\xfd\xd4x\xef?'
p37
tp38
Rp39
ag3
(g7
S'F\xb6\xf3\xfd\xd4x\xef?'
p40
tp41
Rp42
ag3
(g7
S'\xf9\xb1\xc5\x89Sx\xef?'
p43
tp44
Rp45
ag3
(g7
S'\xfd\x07\xd4\xb6\x05\x16\xef?'
p46
tp47
Rp48
ag3
(g7
S'\x9ey\x8e1\xb8w\xef?'
p49
tp50
Rp51
ag3
(g7
S'\x9a\x04\xf2\x0c\x00v\xef?'
p52
tp53
Rp54
ag3
(g7
S'\x9a\x04\xf2\x0c\x00v\xef?'
p55
tp56
Rp57
ag3
(g7
S'\xc0\x06\t\xc7@v\xef?'
p58
tp59
Rp60
ag3
(g7
S'6\x82\xea\x19\xbbx\xef?'
p61
tp62
Rp63
ag3
(g7
S'8B\x19\xbd-k\xef?'
p64
tp65
Rp66
ag3
(g7
S'\xee\xf2X\xca\xf1y\xef?'
p67
tp68
Rp69
ag3
(g7
S'\x16\x96\x100\x9f\x08\xef?'
p70
tp71
Rp72
ag3
(g7
S'\x7fa\xb0\xc0\xe7z\xef?'
p73
tp74
Rp75
ag3
(g7
S'\xf1g\xf5\xee\xa9{\xef?'
p76
tp77
Rp78
ag3
(g7
S'\xf1g\xf5\xee\xa9{\xef?'
p79
tp80
Rp81
ag3
(g7
S'\x17j\x0c\xa9\xea{\xef?'
p82
tp83
Rp84
ag3
(g7
S's\xa2C\x01\x86|\xef?'
p85
tp86
Rp87
ag3
(g7
S'\xd6t\x7fK.}\xef?'
p88
tp89
Rp90
ag3
(g7
S'\xd6t\x7fK.}\xef?'
p91
tp92
Rp93
ag3
(g7
S'e\xe9\xf5\x8a\xa8N\xef?'
p94
tp95
Rp96
ag3
(g7
S'\xa1>_\xad\xd3|\xef?'
p97
tp98
Rp99
asS'loss'
p100
(lp101
g3
(g7
S'\xa9\x9f5J.\x1f\xe6?'
p102
tp103
Rp104
ag3
(g7
S'e\x13T\xbc\xc6\xea\xe4?'
p105
tp106
Rp107
ag3
(g7
S'd\x00\xf0?\x94\xf6\xe0?'
p108
tp109
Rp110
ag3
(g7
S'\x89\xa7:\x9f\x1f\xae\xb6?'
p111
tp112
Rp113
ag3
(g7
S"@P`\n'\xfb\xb4?"
p114
tp115
Rp116
ag3
(g7
S'\xbcQ\x1dlO\xf6\xb4?'
p117
tp118
Rp119
ag3
(g7
S'\xc3u\x98`;\xcd\xb4?'
p120
tp121
Rp122
ag3
(g7
S'\xc8}Zm*\xd3\xb4?'
p123
tp124
Rp125
ag3
(g7
S'X}\x05\xee\x9a\xc2\xb4?'
p126
tp127
Rp128
ag3
(g7
S'<Hn,\xd7\xb1\xb4?'
p129
tp130
Rp131
ag3
(g7
S'\xa8\x1dB\xc9\xec\x96\xb4?'
p132
tp133
Rp134
ag3
(g7
S'\xdbq\x84}o\xa3\xb4?'
p135
tp136
Rp137
ag3
(g7
S'\x12\xe8\xc73\xcd\x90\xbd?'
p138
tp139
Rp140
ag3
(g7
S'\x1e\x06\x08\n\x0b\x87\xb4?'
p141
tp142
Rp143
ag3
(g7
S'\xa4\xb4B\xd68^\xb4?'
p144
tp145
Rp146
ag3
(g7
S'\x05\xeeY\x97\x96.\xb4?'
p147
tp148
Rp149
ag3
(g7
S'\xd3\xe4YG3\x1e\xb4?'
p150
tp151
Rp152
ag3
(g7
S'C\x8f\xbc\xae\xbc\xa5\xb3?'
p153
tp154
Rp155
ag3
(g7
S'N\x97\x0b\xf8|\x15\xb6?'
p156
tp157
Rp158
ag3
(g7
S'\xfb\xd8\xba\x8e\xf1\x8b\xb3?'
p159
tp160
Rp161
ag3
(g7
S'0(YY\xb3\xc2\xc0?'
p162
tp163
Rp164
ag3
(g7
S'\xacc\xa0Z\x92x\xb4?'
p165
tp166
Rp167
ag3
(g7
S'2\x1dr\xb3\x9f\x90\xb3?'
p168
tp169
Rp170
ag3
(g7
S'\xe6\n,\xfbH|\xb3?'
p171
tp172
Rp173
ag3
(g7
S'\xa3\xc4\xe8\xe6\xe4[\xb3?'
p174
tp175
Rp176
ag3
(g7
S'\x81\xde\xd9\x83\xa7L\xb3?'
p177
tp178
Rp179
ag3
(g7
S"g|\x8f'\xc7D\xb3?"
p180
tp181
Rp182
ag3
(g7
S':\x0c\xe5\xe5\x1d6\xb3?'
p183
tp184
Rp185
ag3
(g7
S'J\xa6!J\x8b\xea\xb7?'
p186
tp187
Rp188
ag3
(g7
S'\xb8L\xe7^\x05I\xb3?'
p189
tp190
Rp191
asS'epoch'
p192
(lp193
I0
aI1
aI2
aI3
aI4
aI5
aI6
aI7
aI8
aI9
aI10
aI11
aI12
aI13
aI14
aI15
aI16
aI17
aI18
aI19
aI20
aI21
aI22
aI23
aI24
aI25
aI26
aI27
aI28
aI29
asS'val_acc'
p194
(lp195
F0.5319160746003553
aF0.5030528419182948
aF0.9822935168738899
aF0.9826265541740675
aF0.9826265541740675
aF0.9826265541740675
aF0.9826265541740675
aF0.9826265541740675
aF0.9826265541740675
aF0.9826265541740675
aF0.9826265541740675
aF0.9825710479573713
aF0.9825710479573713
aF0.9825710479573713
aF0.9822380106571936
aF0.9826265541740675
aF0.9826265541740675
aF0.9826265541740675
aF0.9826265541740675
aF0.9826265541740675
aF0.9823490230905861
aF0.9828485790408525
aF0.9829595914742452
aF0.9831261101243339
aF0.9829595914742452
aF0.9835146536412078
aF0.9835146536412078
aF0.9835146536412078
aF0.9832371225577264
aF0.9832926287744227
asS'val_loss'
p196
(lp197
F0.6887973218424224
aF0.6712921648366454
aF0.12333069972133094
aF0.08142634111416203
aF0.08150166291385462
aF0.08150322606940284
aF0.08138345683177502
aF0.08138934581365277
aF0.08128780594548622
aF0.08123421236992953
aF0.08095867889192672
aF0.08033318664762797
aF0.08146314306535696
aF0.0795022085798399
aF0.08003289919937108
aF0.07810811807166217
aF0.07793466939233716
aF0.07718165155450324
aF0.07726798695627005
aF0.07710971120193615
aF0.08804948191255164
aF0.0775065642121016
aF0.0765785433091305
aF0.07622045508733293
aF0.07667027951449282
aF0.07588458765807499
aF0.07576036439001918
aF0.07572438973337353
aF0.07628304409335294
aF0.07588575366368737
as.