(dp0
S'acc'
p1
(lp2
cnumpy.core.multiarray
scalar
p3
(cnumpy
dtype
p4
(S'f8'
p5
I0
I1
tp6
Rp7
(I3
S'<'
p8
NNNI-1
I-1
I0
tp9
bS'\x96\xf3V\x15\x84\xf8\xdf?'
p10
tp11
Rp12
ag3
(g7
S'O^\xa6|6)\xe0?'
p13
tp14
Rp15
ag3
(g7
S'\xff\x82\x8f$B\xe8\xe6?'
p16
tp17
Rp18
ag3
(g7
S'\xc9&\x8aH\xb7+\xeb?'
p19
tp20
Rp21
ag3
(g7
S'\x1c\x98\x80*\xeb\x17\xec?'
p22
tp23
Rp24
ag3
(g7
S'\xa3\xaeY\xf9\xe2k\xe5?'
p25
tp26
Rp27
ag3
(g7
S'\x19\xa0T\xe1\xf0-\xe9?'
p28
tp29
Rp30
ag3
(g7
S'j4C\x96-\t\xe1?'
p31
tp32
Rp33
ag3
(g7
S'\xb2\x8b\xd7?o\x10\xe6?'
p34
tp35
Rp36
ag3
(g7
S'\xef\xa9{\xb9\xb8\xce\xea?'
p37
tp38
Rp39
ag3
(g7
S'\xceo"\xe6\xba\xa0\xe5?'
p40
tp41
Rp42
ag3
(g7
S'>\xfd`\x14\xc2\x14\xe1?'
p43
tp44
Rp45
ag3
(g7
S'&\xf9\n\x06\x95b\xeb?'
p46
tp47
Rp48
ag3
(g7
S'Fo\xcbZ\x1d\x13\xec?'
p49
tp50
Rp51
ag3
(g7
S'\xa6s*u\xfep\xe5?'
p52
tp53
Rp54
ag3
(g7
S'\x99%5r\x87\x1f\xe7?'
p55
tp56
Rp57
ag3
(g7
S'J\xb3\xc1\x1fxu\xec?'
p58
tp59
Rp60
ag3
(g7
S':\x14`\xc8\xf7\x98\xe2?'
p61
tp62
Rp63
ag3
(g7
S'G\xd8n`\x02\xaa\xe4?'
p64
tp65
Rp66
ag3
(g7
S'\x06[\xb0\x05[\xb0\xeb?'
p67
tp68
Rp69
ag3
(g7
S'\xaf\x7f\xde \x9c\xa5\xe2?'
p70
tp71
Rp72
ag3
(g7
S'\xd8\x84\xe2E\x04s\xe3?'
p73
tp74
Rp75
ag3
(g7
S'X\xa6\xc1\xa9^\xe0\xe4?'
p76
tp77
Rp78
ag3
(g7
S'XjZ(\xd4]\xe9?'
p79
tp80
Rp81
ag3
(g7
S'BAW\xd9\x1cw\xed?'
p82
tp83
Rp84
ag3
(g7
S'\x83^~\xe2\x8aw\xee?'
p85
tp86
Rp87
ag3
(g7
S'J2\xe7h\xb7\xd2\xee?'
p88
tp89
Rp90
ag3
(g7
S'\xb3s\xa0\x8e\x93\x04\xef?'
p91
tp92
Rp93
ag3
(g7
S'y\xad\xbf\xaf})\xef?'
p94
tp95
Rp96
ag3
(g7
S'$\xff)O\x193\xef?'
p97
tp98
Rp99
asS'loss'
p100
(lp101
g3
(g7
S'\xdf\x83\xd3M$0\xe6?'
p102
tp103
Rp104
ag3
(g7
S'x\x13\xc1}\xbf-\xe6?'
p105
tp106
Rp107
ag3
(g7
S"~\xa7\xb1'W\x1c\xe1?"
p108
tp109
Rp110
ag3
(g7
S'\x05{\xbd~\\B\xd8?'
p111
tp112
Rp113
ag3
(g7
S'\x8d\xf2\xacD\xd2\xf7\xd5?'
p114
tp115
Rp116
ag3
(g7
S'4EJi\xbb\xff\xe1?'
p117
tp118
Rp119
ag3
(g7
S'\xe6w~\xd9B\x08\xdc?'
p120
tp121
Rp122
ag3
(g7
S'\xe8\xce\xde\xae\x91\x11\xe6?'
p123
tp124
Rp125
ag3
(g7
S'\xdb\x021\xa6\r\xa0\xe2?'
p126
tp127
Rp128
ag3
(g7
S'\x1e\x1fJ\xbb\xe6}\xda?'
p129
tp130
Rp131
ag3
(g7
S'q\x85l\xe2\xe6\x14\xe2?'
p132
tp133
Rp134
ag3
(g7
S'\xa3o\x94\xa3\xd3\x12\xe6?'
p135
tp136
Rp137
ag3
(g7
S'\xde\xc2\xec\x10\x86\x1b\xd9?'
p138
tp139
Rp140
ag3
(g7
S'8P2\xd9I\x94\xd6?'
p141
tp142
Rp143
ag3
(g7
S'~\x98\x19\x10\x12\x01\xe2?'
p144
tp145
Rp146
ag3
(g7
S'\x83\xa9T&{r\xe0?'
p147
tp148
Rp149
ag3
(g7
S'1\xcb\x03\xc3\xdcb\xd5?'
p150
tp151
Rp152
ag3
(g7
S'\x0c\x0b\xcf\x8a\xd9\x12\xe5?'
p153
tp154
Rp155
ag3
(g7
S'C\xde\xf8\xfd\xb8o\xe3?'
p156
tp157
Rp158
ag3
(g7
S'\xed?b\xa9\xff\xaf\xd7?'
p159
tp160
Rp161
ag3
(g7
S'5\xaf\x1e.\x88r\xe5?'
p162
tp163
Rp164
ag3
(g7
S'y\x86\xf5\xf5\x90\xf2\xe4?'
p165
tp166
Rp167
ag3
(g7
S'\xdbd\xd4D\xb6\xad\xe3?'
p168
tp169
Rp170
ag3
(g7
S'j\xa1\x900\xbb\x13\xdd?'
p171
tp172
Rp173
ag3
(g7
S'\x8b{\xf4\xf4\x11\t\xce?'
p174
tp175
Rp176
ag3
(g7
S'\xd0at3Aw\xc4?'
p177
tp178
Rp179
ag3
(g7
S'r\x8c\xde4\xa7\x90\xbe?'
p180
tp181
Rp182
ag3
(g7
S'3\xaf\xf8B\xafb\xba?'
p183
tp184
Rp185
ag3
(g7
S'\xaa!\xf4\xd0\xb1\x8a\xb7?'
p186
tp187
Rp188
ag3
(g7
S';\x87A5:b\xb6?'
p189
tp190
Rp191
asS'epoch'
p192
(lp193
I0
aI1
aI2
aI3
aI4
aI5
aI6
aI7
aI8
aI9
aI10
aI11
aI12
aI13
aI14
aI15
aI16
aI17
aI18
aI19
aI20
aI21
aI22
aI23
aI24
aI25
aI26
aI27
aI28
aI29
asS'val_acc'
p194
(lp195
F0.5069382770870338
aF0.5069382770870338
aF0.8762766429840142
aF0.8956483126110124
aF0.9006993783303731
aF0.5928619005328597
aF0.5419071936056838
aF0.5623889875666075
aF0.8860457371225577
aF0.8889320603907638
aF0.5069382770870338
aF0.6121780639431617
aF0.9035301953818827
aF0.9056394316163411
aF0.6051287744227354
aF0.9037522202486679
aF0.9138543516873889
aF0.6174511545293073
aF0.9041407637655418
aF0.7831372113676732
aF0.6170626110124334
aF0.6561389875666075
aF0.8485790408525755
aF0.9365008880994672
aF0.9644205150976909
aF0.9756882770870338
aF0.9842362344582594
aF0.9832371225577264
aF0.9847357904085258
aF0.9856238898756661
asS'val_loss'
p196
(lp197
F0.6931191541336064
aF0.6925744368951745
aF0.3391300620638458
aF0.3126347470576434
aF0.2927917674164795
aF0.6688445780632865
aF0.6916848620256915
aF0.6765541775595929
aF0.3647754990326665
aF0.3068333057046584
aF0.6892748399619072
aF0.6790373085398689
aF0.2956567598300767
aF0.28035560219418276
aF0.6858830675648212
aF0.28716431702437567
aF0.2666742646197995
aF0.677907993504585
aF0.3011191087009078
aF0.6671070467220201
aF0.6561599420795838
aF0.6319806632288039
aF0.49919806612978956
aF0.20088724392649993
aF0.11796299583107213
aF0.06883347109289202
aF0.06382673429286594
aF0.06531597636950126
aF0.057805342960368086
aF0.054811168936796606
as.