(dp0
S'acc'
p1
(lp2
cnumpy.core.multiarray
scalar
p3
(cnumpy
dtype
p4
(S'f8'
p5
I0
I1
tp6
Rp7
(I3
S'<'
p8
NNNI-1
I-1
I0
tp9
bS'\x95NL\x8e\x14\xdf\xe5?'
p10
tp11
Rp12
ag3
(g7
S'\xbd\x19\x9e\x9fso\xea?'
p13
tp14
Rp15
ag3
(g7
S'\xbe\x98\xc3\xe8\xb2\xcc\xea?'
p16
tp17
Rp18
ag3
(g7
S'\xff\x82\x8f$B\xe8\xea?'
p19
tp20
Rp21
ag3
(g7
S']\xd0\xcbO\\\xf1\xea?'
p22
tp23
Rp24
ag3
(g7
S'\t2\x99\xe9\xcd\xf0\xea?'
p25
tp26
Rp27
ag3
(g7
S'd\n9\xf0/\xf8\xea?'
p28
tp29
Rp30
ag3
(g7
S'\x0c\x97\xd2\x13\xb0\xfc\xea?'
p31
tp32
Rp33
ag3
(g7
S'\x8e\xd1 &\x8c\xfd\xea?'
p34
tp35
Rp36
ag3
(g7
S'\x07\x12\xd3\xf4!\x05\xeb?'
p37
tp38
Rp39
ag3
(g7
S'<\xe8[AC\x0c\xeb?'
p40
tp41
Rp42
ag3
(g7
S'\xe6\x89\xfa7B\x19\xeb?'
p43
tp44
Rp45
ag3
(g7
S'\xca\x86!\x9a\xf0$\xeb?'
p46
tp47
Rp48
ag3
(g7
S'\xf18\x04\xfd\xcd!\xeb?'
p49
tp50
Rp51
ag3
(g7
S'\xae\x83H\xfc\x9e0\xeb?'
p52
tp53
Rp54
asS'loss'
p55
(lp56
g3
(g7
S'\xff\xf4\x7f\xe1\x1b\x8d\xe2?'
p57
tp58
Rp59
ag3
(g7
S'\x06\xe9\x1bO.|\xdb?'
p60
tp61
Rp62
ag3
(g7
S'X\x08\xaf\x81;+\xda?'
p63
tp64
Rp65
ag3
(g7
S'R\xd4\x13\x01x\xaa\xd9?'
p66
tp67
Rp68
ag3
(g7
S'3\xf3\x9d!\xa9[\xd9?'
p69
tp70
Rp71
ag3
(g7
S'\xbc\xef\xebp22\xd9?'
p72
tp73
Rp74
ag3
(g7
S'P\xd7\xc1\x90N\xe4\xd8?'
p75
tp76
Rp77
ag3
(g7
S'L\xa4\x7fL\x87\xac\xd8?'
p78
tp79
Rp80
ag3
(g7
S'lvv\x15+\x82\xd8?'
p81
tp82
Rp83
ag3
(g7
S'\xb3\x1c\x98\xcc\x15D\xd8?'
p84
tp85
Rp86
ag3
(g7
S'\xd8\x86\x00Nj\x05\xd8?'
p87
tp88
Rp89
ag3
(g7
S'\x8c\x9a\xe3A\\\xcf\xd7?'
p90
tp91
Rp92
ag3
(g7
S'\x00\x0c\xc0\xc8^\x86\xd7?'
p93
tp94
Rp95
ag3
(g7
S'\xb0x{\xf0\xcbg\xd7?'
p96
tp97
Rp98
ag3
(g7
S'\xaf\x10^\xa3<3\xd7?'
p99
tp100
Rp101
asS'epoch'
p102
(lp103
I0
aI1
aI2
aI3
aI4
aI5
aI6
aI7
aI8
aI9
aI10
aI11
aI12
aI13
aI14
asS'val_acc'
p104
(lp105
F0.8187166962699822
aF0.8288188277087034
aF0.8418627886323268
aF0.8445270870337478
aF0.8443605683836589
aF0.8424178507992895
aF0.8414187388987566
aF0.8405861456483126
aF0.8448601243339254
aF0.8460812611012434
aF0.8486345470692718
aF0.8492451154529307
aF0.8430839253996447
aF0.8513543516873889
aF0.8526865008880995
asS'val_loss'
p106
(lp107
F0.43907152635417573
aF0.42638430413790945
aF0.3939892092524111
aF0.387151576964875
aF0.3834740912623626
aF0.39438755624175564
aF0.3862015253333477
aF0.38996541640882093
aF0.3814981498991253
aF0.3759379359853376
aF0.3679918018144956
aF0.3685461714689788
aF0.37833044396904025
aF0.3596162252303103
aF0.35680336394097706
as.