(dp0
S'acc'
p1
(lp2
cnumpy.core.multiarray
scalar
p3
(cnumpy
dtype
p4
(S'f8'
p5
I0
I1
tp6
Rp7
(I3
S'<'
p8
NNNI-1
I-1
I0
tp9
bS'c\xd2;J\xa8\x00\xe0?'
p10
tp11
Rp12
ag3
(g7
S'\xbf\ns\xa2C\x01\xe0?'
p13
tp14
Rp15
ag3
(g7
S':\xbb\x1f\xbd\xe8\xf7\xdf?'
p16
tp17
Rp18
ag3
(g7
S'L\x04.t\x81\x00\xe0?'
p19
tp20
Rp21
ag3
(g7
S'\xa2\xb2\xc3\xd4\xe5\xf6\xdf?'
p22
tp23
Rp24
ag3
(g7
S'\x13\xa9\xa5\x08\xd2\x01\xe0?'
p25
tp26
Rp27
ag3
(g7
S'CpH\xcb\xf8\xd0\xdf?'
p28
tp29
Rp30
ag3
(g7
S'=\xd0$\x90g\x00\xe0?'
p31
tp32
Rp33
ag3
(g7
S'\xe2\xf7\x84\x89\x05\xf9\xdf?'
p34
tp35
Rp36
ag3
(g7
S'\x0c\x1f\x04\x11\x9b\xf7\xdf?'
p37
tp38
Rp39
ag3
(g7
S'\x1fh\x12\xc83\x00\xe0?'
p40
tp41
Rp42
ag3
(g7
S'U\xae\x95`d\xf6\xdf?'
p43
tp44
Rp45
ag3
(g7
S'\xf9\x15\xc7\xb6\x8f\xfc\xdf?'
p46
tp47
Rp48
ag3
(g7
S']\xf8e\xfb\r\xf3\xdf?'
p49
tp50
Rp51
ag3
(g7
S'\xce\x8e\xb0\xdd\xc0\x04\xe0?'
p52
tp53
Rp54
ag3
(g7
S'\xa4g1V+\x06\xe0?'
p55
tp56
Rp57
ag3
(g7
S'\x943(r\x11\x06\xe0?'
p58
tp59
Rp60
ag3
(g7
S'u\xd6\xd6\xcb\n\xe9\xdf?'
p61
tp62
Rp63
ag3
(g7
S'\x1fh\x12\xc83\x00\xe0?'
p64
tp65
Rp66
ag3
(g7
S'5\xd6\x88L!\x07\xe0?'
p67
tp68
Rp69
ag3
(g7
S'\x81\x8a\x82i?\x04\xe0?'
p70
tp71
Rp72
ag3
(g7
S'\x17~\xd9~\xc3\xfc\xdf?'
p73
tp74
Rp75
ag3
(g7
S'rVy\x85%\x04\xe0?'
p76
tp77
Rp78
ag3
(g7
S'\xf1\xcb\xf6\x1b\xe6\xff\xdf?'
p79
tp80
Rp81
ag3
(g7
S'}e\x1a\x9c\xea\x05\xe0?'
p82
tp83
Rp84
ag3
(g7
S'\xbe\xfa\x0f\xa8m\x0b\xe0?'
p85
tp86
Rp87
ag3
(g7
S'*w\xb3\xde\xf8\x01\xe0?'
p88
tp89
Rp90
ag3
(g7
S'\xac\xb1\x01\xf1\xd4\x02\xe0?'
p91
tp92
Rp93
ag3
(g7
S'\xe5\\\xbe\xb3\xe7\x04\xe0?'
p94
tp95
Rp96
ag3
(g7
S'\xd2\xb3\x18\xab\x15\x03\xe0?'
p97
tp98
Rp99
asS'loss'
p100
(lp101
g3
(g7
S'\xa0B\x04m.0\xe6?'
p102
tp103
Rp104
ag3
(g7
S'4T\xd1\\g.\xe6?'
p105
tp106
Rp107
ag3
(g7
S'\xbd\xc4\xbf\x99f.\xe6?'
p108
tp109
Rp110
ag3
(g7
S'\xb7v\x9d\x01X.\xe6?'
p111
tp112
Rp113
ag3
(g7
S'\xad\xd4\xebIT.\xe6?'
p114
tp115
Rp116
ag3
(g7
S"\x0f\x9c\x05'W.\xe6?"
p117
tp118
Rp119
ag3
(g7
S'V\x94\xb5\xabU.\xe6?'
p120
tp121
Rp122
ag3
(g7
S'\x9d\x9c\xe6.I.\xe6?'
p123
tp124
Rp125
ag3
(g7
S'\xa52\xdb\xee].\xe6?'
p126
tp127
Rp128
ag3
(g7
S'ab\xc3\xb5M.\xe6?'
p129
tp130
Rp131
ag3
(g7
S'#\xa0\xda\xa3\\.\xe6?'
p132
tp133
Rp134
ag3
(g7
S'{\x15\xc3\xa6Z.\xe6?'
p135
tp136
Rp137
ag3
(g7
S'\x97\x96\xf4\x8eK.\xe6?'
p138
tp139
Rp140
ag3
(g7
S'\xf3\xd4\xac\xb5R.\xe6?'
p141
tp142
Rp143
ag3
(g7
S'\xadD\xce\x12L.\xe6?'
p144
tp145
Rp146
ag3
(g7
S'\xebof_I.\xe6?'
p147
tp148
Rp149
ag3
(g7
S'\x14Z?\xe3G.\xe6?'
p150
tp151
Rp152
ag3
(g7
S'\xc8\x18&\xcfR.\xe6?'
p153
tp154
Rp155
ag3
(g7
S'^-\xe9\xb8G.\xe6?'
p156
tp157
Rp158
ag3
(g7
S'\x91\xb6\x16\x8eF.\xe6?'
p159
tp160
Rp161
ag3
(g7
S'\x93\x89\xc1\xa2H.\xe6?'
p162
tp163
Rp164
ag3
(g7
S'\xad\xb7p\xd3I.\xe6?'
p165
tp166
Rp167
ag3
(g7
S'\xbal\xa84H.\xe6?'
p168
tp169
Rp170
ag3
(g7
S'\xaa\x10\xa6\xc2R.\xe6?'
p171
tp172
Rp173
ag3
(g7
S'b;rUH.\xe6?'
p174
tp175
Rp176
ag3
(g7
S'@\x8c\xb3\x9cA.\xe6?'
p177
tp178
Rp179
ag3
(g7
S'\x80R\xc5\x82K.\xe6?'
p180
tp181
Rp182
ag3
(g7
S'y3\r@E.\xe6?'
p183
tp184
Rp185
ag3
(g7
S'4\xe8\x88\xeaG.\xe6?'
p186
tp187
Rp188
ag3
(g7
S'>th.[.\xe6?'
p189
tp190
Rp191
asS'epoch'
p192
(lp193
I0
aI1
aI2
aI3
aI4
aI5
aI6
aI7
aI8
aI9
aI10
aI11
aI12
aI13
aI14
aI15
aI16
aI17
aI18
aI19
aI20
aI21
aI22
aI23
aI24
aI25
aI26
aI27
aI28
aI29
asS'val_acc'
p194
(lp195
F0.5069382770870338
aF0.49306172291296624
aF0.49306172291296624
aF0.49306172291296624
aF0.49306172291296624
aF0.5069382770870338
aF0.49306172291296624
aF0.5069382770870338
aF0.49306172291296624
aF0.49306172291296624
aF0.49306172291296624
aF0.49306172291296624
aF0.5069382770870338
aF0.5069382770870338
aF0.49306172291296624
aF0.49306172291296624
aF0.5069382770870338
aF0.49306172291296624
aF0.49306172291296624
aF0.49306172291296624
aF0.49306172291296624
aF0.49306172291296624
aF0.49306172291296624
aF0.49306172291296624
aF0.49306172291296624
aF0.49306172291296624
aF0.49306172291296624
aF0.49306172291296624
aF0.49306172291296624
aF0.49306172291296624
asS'val_loss'
p196
(lp197
F0.693122661269803
aF0.6932294551806503
aF0.693178326001429
aF0.6931712904178355
aF0.6931598092775487
aF0.6931380262829133
aF0.6931627029931186
aF0.6931410068203593
aF0.6931476007760634
aF0.6931642638086369
aF0.693157035363902
aF0.6931692535268577
aF0.6931452381167176
aF0.6931434533044883
aF0.6931675644569448
aF0.6931651791700603
aF0.6931471705505415
aF0.6931711691549959
aF0.6931732706709366
aF0.6931791024406165
aF0.6931637593409818
aF0.6931679191425132
aF0.6931612961010727
aF0.6931714477939807
aF0.6931710527643642
aF0.6931558590109759
aF0.6931664524851037
aF0.6931676825415678
aF0.6931667699013018
aF0.69316060371728
as.