(dp0
S'acc'
p1
(lp2
cnumpy.core.multiarray
scalar
p3
(cnumpy
dtype
p4
(S'f8'
p5
I0
I1
tp6
Rp7
(I3
S'<'
p8
NNNI-1
I-1
I0
tp9
bS'\x00\x00\x00\x00\x00\x00\xe0?'
p10
tp11
Rp12
ag3
(g7
S'\xd4\xad\xf9a\x912\xe0?'
p13
tp14
Rp15
ag3
(g7
S'{\t\xed%\xb4\x97\xe0?'
p16
tp17
Rp18
ag3
(g7
S'\xa8[\xf3\xc3"e\xe0?'
p19
tp20
Rp21
ag3
(g7
S'{\t\xed%\xb4\x97\xe0?'
p22
tp23
Rp24
ag3
(g7
S'{\t\xed%\xb4\x97\xe0?'
p25
tp26
Rp27
ag3
(g7
S'{\t\xed%\xb4\x97\xe0?'
p28
tp29
Rp30
ag3
(g7
S'O\xb7\xe6\x87E\xca\xe0?'
p31
tp32
Rp33
ag3
(g7
S'\xa8[\xf3\xc3"e\xe0?'
p34
tp35
Rp36
ag3
(g7
S'O\xb7\xe6\x87E\xca\xe0?'
p37
tp38
Rp39
ag3
(g7
S'{\t\xed%\xb4\x97\xe0?'
p40
tp41
Rp42
ag3
(g7
S'{\t\xed%\xb4\x97\xe0?'
p43
tp44
Rp45
ag3
(g7
S'F\xca\xc0\xd3\xad\xf9\xe1?'
p46
tp47
Rp48
ag3
(g7
S'#e\xe0\xe9\xd6\xfc\xe0?'
p49
tp50
Rp51
ag3
(g7
S'\xca\xc0\xd3\xad\xf9a\xe1?'
p52
tp53
Rp54
ag3
(g7
S'O\xb7\xe6\x87E\xca\xe0?'
p55
tp56
Rp57
ag3
(g7
S'{\t\xed%\xb4\x97\xe0?'
p58
tp59
Rp60
ag3
(g7
S'\x00\x00\x00\x00\x00\x00\xe0?'
p61
tp62
Rp63
ag3
(g7
S'\xf7\x12\xdaKh/\xe1?'
p64
tp65
Rp66
ag3
(g7
S'#e\xe0\xe9\xd6\xfc\xe0?'
p67
tp68
Rp69
ag3
(g7
S'\xca\xc0\xd3\xad\xf9a\xe1?'
p70
tp71
Rp72
ag3
(g7
S'{\t\xed%\xb4\x97\xe0?'
p73
tp74
Rp75
ag3
(g7
S'\x9en\xcd\x0f\x8b\x94\xe1?'
p76
tp77
Rp78
ag3
(g7
S'O\xb7\xe6\x87E\xca\xe0?'
p79
tp80
Rp81
ag3
(g7
S'O\xb7\xe6\x87E\xca\xe0?'
p82
tp83
Rp84
ag3
(g7
S'\x19x\xba5?,\xe2?'
p85
tp86
Rp87
ag3
(g7
S'h/\xa1\xbd\x84\xf6\xe2?'
p88
tp89
Rp90
ag3
(g7
S'x\xba5?,R\xe6?'
p91
tp92
Rp93
ag3
(g7
S'\xc1\xd3\xad\xf9a\x91\xe2?'
p94
tp95
Rp96
ag3
(g7
S'\x10\x8b\x94\x81\xa7[\xe3?'
p97
tp98
Rp99
asS'loss'
p100
(lp101
g3
(g7
S'^\xe0i30f\xe6?'
p102
tp103
Rp104
ag3
(g7
S'be\xcf\xbb\x8c9\xe6?'
p105
tp106
Rp107
ag3
(g7
S'\xcd\x99\xc9.&/\xe6?'
p108
tp109
Rp110
ag3
(g7
S'\x98G\x10\xe5A:\xe6?'
p111
tp112
Rp113
ag3
(g7
S'\xe3`Q\xa9\xd5/\xe6?'
p114
tp115
Rp116
ag3
(g7
S';g~e\xac!\xe6?'
p117
tp118
Rp119
ag3
(g7
S'\xb7\x07\xfb\xe5\x890\xe6?'
p120
tp121
Rp122
ag3
(g7
S'\xc5\xfc\xe3\x99f:\xe6?'
p123
tp124
Rp125
ag3
(g7
S'~W\xe6\xa5\xe93\xe6?'
p126
tp127
Rp128
ag3
(g7
S'\xbf\xf5\x0c\x03.\x12\xe6?'
p129
tp130
Rp131
ag3
(g7
S'.0\\1\xfd-\xe6?'
p132
tp133
Rp134
ag3
(g7
S'z5E\xbd\xb4\x1d\xe6?'
p135
tp136
Rp137
ag3
(g7
S'\x1cw\x18\xc3t\x03\xe6?'
p138
tp139
Rp140
ag3
(g7
S'\xa3d \xfd\xea9\xe6?'
p141
tp142
Rp143
ag3
(g7
S"\xcakS'T\x02\xe6?"
p144
tp145
Rp146
ag3
(g7
S'O5\xbb\xd9\x0e\x15\xe6?'
p147
tp148
Rp149
ag3
(g7
S'\x19N\xc6\xf1\xc3,\xe6?'
p150
tp151
Rp152
ag3
(g7
S'\xe4E\xd5\x01\x0b\xfe\xe5?'
p153
tp154
Rp155
ag3
(g7
S'oO7\xc6\x00\x18\xe6?'
p156
tp157
Rp158
ag3
(g7
S'\xa4\xd8Z\xad\x8a\x05\xe6?'
p159
tp160
Rp161
ag3
(g7
S'\xb1\xc8R\x10\xfa\xfa\xe5?'
p162
tp163
Rp164
ag3
(g7
S'$\x83\xe4\x08\xdd\xe9\xe5?'
p165
tp166
Rp167
ag3
(g7
S'\xbb\x1bz\xa8\xdb\xe4\xe5?'
p168
tp169
Rp170
ag3
(g7
S'\x8a\xc3\xa0\x92\xb9\xf0\xe5?'
p171
tp172
Rp173
ag3
(g7
S'\x0c1\xa9\x9c\xd2\xc8\xe5?'
p174
tp175
Rp176
ag3
(g7
S'\xc7\xf15\xa8W\xc7\xe5?'
p177
tp178
Rp179
ag3
(g7
S'\x9dS\xb1\xb6\x00\xee\xe5?'
p180
tp181
Rp182
ag3
(g7
S'\x80\xc5\xaeu\x92\x96\xe5?'
p183
tp184
Rp185
ag3
(g7
S'o-\x9a\xd7\xe2^\xe5?'
p186
tp187
Rp188
ag3
(g7
S'\xf9|0(\x95S\xe5?'
p189
tp190
Rp191
asS'epoch'
p192
(lp193
I0
aI1
aI2
aI3
aI4
aI5
aI6
aI7
aI8
aI9
aI10
aI11
aI12
aI13
aI14
aI15
aI16
aI17
aI18
aI19
aI20
aI21
aI22
aI23
aI24
aI25
aI26
aI27
aI28
aI29
asS'val_acc'
p194
(lp195
F0.2777777777777778
aF0.2777777777777778
aF0.2777777777777778
aF0.2777777777777778
aF0.2777777777777778
aF0.2777777777777778
aF0.2777777777777778
aF0.2777777777777778
aF0.2777777777777778
aF0.2777777777777778
aF0.2777777777777778
aF0.2777777777777778
aF0.2777777777777778
aF0.2777777777777778
aF0.2777777777777778
aF0.2777777777777778
aF0.2777777777777778
aF0.2777777777777778
aF0.2777777777777778
aF0.2777777777777778
aF0.2777777777777778
aF0.2777777777777778
aF0.2777777777777778
aF0.2777777777777778
aF0.2777777777777778
aF0.6111111111111112
aF0.6111111111111112
aF0.3333333333333333
aF0.3333333333333333
aF0.2777777777777778
asS'val_loss'
p196
(lp197
F0.7102888847044196
aF0.7379394971100561
aF0.7044654588524928
aF0.726828781728546
aF0.7177784462746086
aF0.7366000737140924
aF0.7323517141239277
aF0.7262957871728829
aF0.7210836102903713
aF0.7353329200989216
aF0.7129304506238306
aF0.7102944117803599
aF0.7094163599857107
aF0.6939560367722132
aF0.6980041834482525
aF0.6989943939914491
aF0.7019748326165256
aF0.7011870813712424
aF0.7019983832102363
aF0.7022638463715685
aF0.7142709942259584
aF0.710012073952298
aF0.707142483437212
aF0.7169941222959493
aF0.6995712793398317
aF0.6862777186951173
aF0.6851989996267285
aF0.6965796731246742
aF0.6952537504829732
aF0.7037613853712142
as.